target datalayout = "e-m:e-p270:32:32-p271:32:32-p272:64:64-i64:64-i128:128-f80:128-n8:16:32:64-S128"
target triple = "x86_64-pc-linux-gnu"

%struct._timelib_time = type { i64, i64, i64, i64, i64, i64, i64, i32, ptr, ptr, i32, %struct._timelib_rel_time, i64, i32, i32, i32, i32, i32, i32, i32, i32, i32 }
%struct._timelib_rel_time = type { i64, i64, i64, i64, i64, i64, i64, i32, i32, i32, i32, i64, %struct.anon, i32, i32 }
%struct.anon = type { i32, i64 }

; Function Attrs: nounwind uwtable
define internal void @do_range_limit(i64 noundef %0, i64 noundef %1, i64 noundef %2, ptr noundef %3, ptr noundef %4) #0 {
  %6 = alloca i64, align 8
  %7 = alloca i64, align 8
  %8 = alloca i64, align 8
  %9 = alloca ptr, align 8
  %10 = alloca ptr, align 8
  store i64 %0, ptr %6, align 8, !tbaa !49
  store i64 %1, ptr %7, align 8, !tbaa !49
  store i64 %2, ptr %8, align 8, !tbaa !49
  store ptr %3, ptr %9, align 8, !tbaa !66
  store ptr %4, ptr %10, align 8, !tbaa !66
  %11 = load ptr, ptr %9, align 8, !tbaa !66
  %12 = load i64, ptr %11, align 8, !tbaa !49
  %13 = load i64, ptr %6, align 8, !tbaa !49
  %14 = icmp slt i64 %12, %13
  br i1 %14, label %15, label %40

15:                                               ; preds = %5
  %16 = load i64, ptr %6, align 8, !tbaa !49
  %17 = load ptr, ptr %9, align 8, !tbaa !66
  %18 = load i64, ptr %17, align 8, !tbaa !49
  %19 = sub i64 %16, %18
  %20 = sub i64 %19, 1
  %21 = load i64, ptr %8, align 8, !tbaa !49
  %22 = sdiv i64 %20, %21
  %23 = add i64 %22, 1
  %24 = load ptr, ptr %10, align 8, !tbaa !66
  %25 = load i64, ptr %24, align 8, !tbaa !49
  %26 = sub i64 %25, %23
  store i64 %26, ptr %24, align 8, !tbaa !49
  %27 = load i64, ptr %8, align 8, !tbaa !49
  %28 = load i64, ptr %6, align 8, !tbaa !49
  %29 = load ptr, ptr %9, align 8, !tbaa !66
  %30 = load i64, ptr %29, align 8, !tbaa !49
  %31 = sub i64 %28, %30
  %32 = sub i64 %31, 1
  %33 = load i64, ptr %8, align 8, !tbaa !49
  %34 = sdiv i64 %32, %33
  %35 = add i64 %34, 1
  %36 = mul i64 %27, %35
  %37 = load ptr, ptr %9, align 8, !tbaa !66
  %38 = load i64, ptr %37, align 8, !tbaa !49
  %39 = add i64 %38, %36
  store i64 %39, ptr %37, align 8, !tbaa !49
  br label %40

40:                                               ; preds = %15, %5
  %41 = load ptr, ptr %9, align 8, !tbaa !66
  %42 = load i64, ptr %41, align 8, !tbaa !49
  %43 = load i64, ptr %7, align 8, !tbaa !49
  %44 = icmp sge i64 %42, %43
  br i1 %44, label %45, label %62

45:                                               ; preds = %40
  %46 = load ptr, ptr %9, align 8, !tbaa !66
  %47 = load i64, ptr %46, align 8, !tbaa !49
  %48 = load i64, ptr %8, align 8, !tbaa !49
  %49 = sdiv i64 %47, %48
  %50 = load ptr, ptr %10, align 8, !tbaa !66
  %51 = load i64, ptr %50, align 8, !tbaa !49
  %52 = add i64 %51, %49
  store i64 %52, ptr %50, align 8, !tbaa !49
  %53 = load i64, ptr %8, align 8, !tbaa !49
  %54 = load ptr, ptr %9, align 8, !tbaa !66
  %55 = load i64, ptr %54, align 8, !tbaa !49
  %56 = load i64, ptr %8, align 8, !tbaa !49
  %57 = sdiv i64 %55, %56
  %58 = mul i64 %53, %57
  %59 = load ptr, ptr %9, align 8, !tbaa !66
  %60 = load i64, ptr %59, align 8, !tbaa !49
  %61 = sub i64 %60, %58
  store i64 %61, ptr %59, align 8, !tbaa !49
  br label %62

62:                                               ; preds = %45, %40
  ret void
}

; Function Attrs: nounwind uwtable
define hidden ptr @timelib_sub_wall(ptr noundef %0, ptr noundef %1) #0 {
  %3 = alloca ptr, align 8
  %4 = alloca ptr, align 8
  %5 = alloca i32, align 4
  %6 = alloca ptr, align 8
  %7 = alloca ptr, align 8
  store ptr %0, ptr %3, align 8, !tbaa !4
  store ptr %1, ptr %4, align 8, !tbaa !29
  call void @llvm.lifetime.start.p0(i64 4, ptr %5) #7
  store i32 1, ptr %5, align 4, !tbaa !51
  call void @llvm.lifetime.start.p0(i64 8, ptr %6) #7
  %8 = load ptr, ptr %3, align 8, !tbaa !4
  %9 = call ptr @timelib_time_clone(ptr noundef %8)
  store ptr %9, ptr %6, align 8, !tbaa !4
  %10 = load ptr, ptr %6, align 8, !tbaa !4
  %11 = getelementptr inbounds nuw %struct._timelib_time, ptr %10, i32 0, i32 16
  store i32 1, ptr %11, align 4, !tbaa !64
  %12 = load ptr, ptr %6, align 8, !tbaa !4
  %13 = getelementptr inbounds nuw %struct._timelib_time, ptr %12, i32 0, i32 18
  store i32 0, ptr %13, align 4, !tbaa !65
  %14 = load ptr, ptr %4, align 8, !tbaa !29
  %15 = getelementptr inbounds nuw %struct._timelib_rel_time, ptr %14, i32 0, i32 13
  %16 = load i32, ptr %15, align 8, !tbaa !55
  %17 = icmp ne i32 %16, 0
  br i1 %17, label %23, label %18

18:                                               ; preds = %2
  %19 = load ptr, ptr %4, align 8, !tbaa !29
  %20 = getelementptr inbounds nuw %struct._timelib_rel_time, ptr %19, i32 0, i32 14
  %21 = load i32, ptr %20, align 4, !tbaa !56
  %22 = icmp ne i32 %21, 0
  br i1 %22, label %23, label %29

23:                                               ; preds = %18, %2
  %24 = load ptr, ptr %6, align 8, !tbaa !4
  %25 = getelementptr inbounds nuw %struct._timelib_time, ptr %24, i32 0, i32 11
  %26 = load ptr, ptr %4, align 8, !tbaa !29
  call void @llvm.memcpy.p0.p0.i64(ptr align 8 %25, ptr align 8 %26, i64 104, i1 false)
  %27 = load ptr, ptr %6, align 8, !tbaa !4
  call void @timelib_update_ts(ptr noundef %27, ptr noundef null)
  %28 = load ptr, ptr %6, align 8, !tbaa !4
  call void @timelib_update_from_sse(ptr noundef %28)
  br label %151

29:                                               ; preds = %18
  %30 = load ptr, ptr %4, align 8, !tbaa !29
  %31 = getelementptr inbounds nuw %struct._timelib_rel_time, ptr %30, i32 0, i32 10
  %32 = load i32, ptr %31, align 4, !tbaa !31
  %33 = icmp ne i32 %32, 0
  br i1 %33, label %34, label %35

34:                                               ; preds = %29
  store i32 -1, ptr %5, align 4, !tbaa !51
  br label %35

35:                                               ; preds = %34, %29
  %36 = load ptr, ptr %6, align 8, !tbaa !4
  %37 = getelementptr inbounds nuw %struct._timelib_time, ptr %36, i32 0, i32 11
  call void @llvm.memset.p0.i64(ptr align 8 %37, i8 0, i64 104, i1 false)
  %38 = load ptr, ptr %4, align 8, !tbaa !29
  %39 = getelementptr inbounds nuw %struct._timelib_rel_time, ptr %38, i32 0, i32 0
  %40 = load i64, ptr %39, align 8, !tbaa !33
  %41 = load i32, ptr %5, align 4, !tbaa !51
  %42 = sext i32 %41 to i64
  %43 = mul i64 %40, %42
  %44 = sub i64 0, %43
  %45 = load ptr, ptr %6, align 8, !tbaa !4
  %46 = getelementptr inbounds nuw %struct._timelib_time, ptr %45, i32 0, i32 11
  %47 = getelementptr inbounds nuw %struct._timelib_rel_time, ptr %46, i32 0, i32 0
  store i64 %44, ptr %47, align 8, !tbaa !57
  %48 = load ptr, ptr %4, align 8, !tbaa !29
  %49 = getelementptr inbounds nuw %struct._timelib_rel_time, ptr %48, i32 0, i32 1
  %50 = load i64, ptr %49, align 8, !tbaa !35
  %51 = load i32, ptr %5, align 4, !tbaa !51
  %52 = sext i32 %51 to i64
  %53 = mul i64 %50, %52
  %54 = sub i64 0, %53
  %55 = load ptr, ptr %6, align 8, !tbaa !4
  %56 = getelementptr inbounds nuw %struct._timelib_time, ptr %55, i32 0, i32 11
  %57 = getelementptr inbounds nuw %struct._timelib_rel_time, ptr %56, i32 0, i32 1
  store i64 %54, ptr %57, align 8, !tbaa !58
  %58 = load ptr, ptr %4, align 8, !tbaa !29
  %59 = getelementptr inbounds nuw %struct._timelib_rel_time, ptr %58, i32 0, i32 2
  %60 = load i64, ptr %59, align 8, !tbaa !37
  %61 = load i32, ptr %5, align 4, !tbaa !51
  %62 = sext i32 %61 to i64
  %63 = mul i64 %60, %62
  %64 = sub i64 0, %63
  %65 = load ptr, ptr %6, align 8, !tbaa !4
  %66 = getelementptr inbounds nuw %struct._timelib_time, ptr %65, i32 0, i32 11
  %67 = getelementptr inbounds nuw %struct._timelib_rel_time, ptr %66, i32 0, i32 2
  store i64 %64, ptr %67, align 8, !tbaa !59
  %68 = load ptr, ptr %6, align 8, !tbaa !4
  %69 = getelementptr inbounds nuw %struct._timelib_time, ptr %68, i32 0, i32 11
  %70 = getelementptr inbounds nuw %struct._timelib_rel_time, ptr %69, i32 0, i32 0
  %71 = load i64, ptr %70, align 8, !tbaa !57
  %72 = icmp ne i64 %71, 0
  br i1 %72, label %85, label %73

73:                                               ; preds = %35
  %74 = load ptr, ptr %6, align 8, !tbaa !4
  %75 = getelementptr inbounds nuw %struct._timelib_time, ptr %74, i32 0, i32 11
  %76 = getelementptr inbounds nuw %struct._timelib_rel_time, ptr %75, i32 0, i32 1
  %77 = load i64, ptr %76, align 8, !tbaa !58
  %78 = icmp ne i64 %77, 0
  br i1 %78, label %85, label %79

79:                                               ; preds = %73
  %80 = load ptr, ptr %6, align 8, !tbaa !4
  %81 = getelementptr inbounds nuw %struct._timelib_time, ptr %80, i32 0, i32 11
  %82 = getelementptr inbounds nuw %struct._timelib_rel_time, ptr %81, i32 0, i32 2
  %83 = load i64, ptr %82, align 8, !tbaa !59
  %84 = icmp ne i64 %83, 0
  br i1 %84, label %85, label %87

85:                                               ; preds = %79, %73, %35
  %86 = load ptr, ptr %6, align 8, !tbaa !4
  call void @timelib_update_ts(ptr noundef %86, ptr noundef null)
  br label %87

87:                                               ; preds = %85, %79
  %88 = load ptr, ptr %4, align 8, !tbaa !29
  %89 = getelementptr inbounds nuw %struct._timelib_rel_time, ptr %88, i32 0, i32 6
  %90 = load i64, ptr %89, align 8, !tbaa !47
  %91 = icmp eq i64 %90, 0
  br i1 %91, label %92, label %111

92:                                               ; preds = %87
  %93 = load i32, ptr %5, align 4, !tbaa !51
  %94 = sext i32 %93 to i64
  %95 = load ptr, ptr %4, align 8, !tbaa !29
  %96 = getelementptr inbounds nuw %struct._timelib_rel_time, ptr %95, i32 0, i32 3
  %97 = load i64, ptr %96, align 8, !tbaa !39
  %98 = load ptr, ptr %4, align 8, !tbaa !29
  %99 = getelementptr inbounds nuw %struct._timelib_rel_time, ptr %98, i32 0, i32 4
  %100 = load i64, ptr %99, align 8, !tbaa !42
  %101 = load ptr, ptr %4, align 8, !tbaa !29
  %102 = getelementptr inbounds nuw %struct._timelib_rel_time, ptr %101, i32 0, i32 5
  %103 = load i64, ptr %102, align 8, !tbaa !45
  %104 = call i64 @timelib_hms_to_seconds(i64 noundef %97, i64 noundef %100, i64 noundef %103)
  %105 = mul i64 %94, %104
  %106 = load ptr, ptr %6, align 8, !tbaa !4
  %107 = getelementptr inbounds nuw %struct._timelib_time, ptr %106, i32 0, i32 12
  %108 = load i64, ptr %107, align 8, !tbaa !50
  %109 = sub i64 %108, %105
  store i64 %109, ptr %107, align 8, !tbaa !50
  %110 = load ptr, ptr %6, align 8, !tbaa !4
  call void @timelib_update_from_sse(ptr noundef %110)
  br label %149

111:                                              ; preds = %87
  call void @llvm.lifetime.start.p0(i64 8, ptr %7) #7
  %112 = load ptr, ptr %4, align 8, !tbaa !29
  %113 = call ptr @timelib_rel_time_clone(ptr noundef %112)
  store ptr %113, ptr %7, align 8, !tbaa !29
  %114 = load ptr, ptr %7, align 8, !tbaa !29
  %115 = getelementptr inbounds nuw %struct._timelib_rel_time, ptr %114, i32 0, i32 6
  %116 = load ptr, ptr %7, align 8, !tbaa !29
  %117 = getelementptr inbounds nuw %struct._timelib_rel_time, ptr %116, i32 0, i32 5
  call void @do_range_limit(i64 noundef 0, i64 noundef 1000000, i64 noundef 1000000, ptr noundef %115, ptr noundef %117)
  %118 = load i32, ptr %5, align 4, !tbaa !51
  %119 = sext i32 %118 to i64
  %120 = load ptr, ptr %7, align 8, !tbaa !29
  %121 = getelementptr inbounds nuw %struct._timelib_rel_time, ptr %120, i32 0, i32 3
  %122 = load i64, ptr %121, align 8, !tbaa !39
  %123 = load ptr, ptr %7, align 8, !tbaa !29
  %124 = getelementptr inbounds nuw %struct._timelib_rel_time, ptr %123, i32 0, i32 4
  %125 = load i64, ptr %124, align 8, !tbaa !42
  %126 = load ptr, ptr %7, align 8, !tbaa !29
  %127 = getelementptr inbounds nuw %struct._timelib_rel_time, ptr %126, i32 0, i32 5
  %128 = load i64, ptr %127, align 8, !tbaa !45
  %129 = call i64 @timelib_hms_to_seconds(i64 noundef %122, i64 noundef %125, i64 noundef %128)
  %130 = mul i64 %119, %129
  %131 = load ptr, ptr %6, align 8, !tbaa !4
  %132 = getelementptr inbounds nuw %struct._timelib_time, ptr %131, i32 0, i32 12
  %133 = load i64, ptr %132, align 8, !tbaa !50
  %134 = sub i64 %133, %130
  store i64 %134, ptr %132, align 8, !tbaa !50
  %135 = load ptr, ptr %6, align 8, !tbaa !4
  call void @timelib_update_from_sse(ptr noundef %135)
  %136 = load ptr, ptr %7, align 8, !tbaa !29
  %137 = getelementptr inbounds nuw %struct._timelib_rel_time, ptr %136, i32 0, i32 6
  %138 = load i64, ptr %137, align 8, !tbaa !47
  %139 = load i32, ptr %5, align 4, !tbaa !51
  %140 = sext i32 %139 to i64
  %141 = mul i64 %138, %140
  %142 = load ptr, ptr %6, align 8, !tbaa !4
  %143 = getelementptr inbounds nuw %struct._timelib_time, ptr %142, i32 0, i32 6
  %144 = load i64, ptr %143, align 8, !tbaa !46
  %145 = sub i64 %144, %141
  store i64 %145, ptr %143, align 8, !tbaa !46
  %146 = load ptr, ptr %6, align 8, !tbaa !4
  call void @timelib_do_normalize(ptr noundef %146)
  %147 = load ptr, ptr %6, align 8, !tbaa !4
  call void @timelib_update_ts(ptr noundef %147, ptr noundef null)
  %148 = load ptr, ptr %7, align 8, !tbaa !29
  call void @timelib_rel_time_dtor(ptr noundef %148)
  call void @llvm.lifetime.end.p0(i64 8, ptr %7) #7
  br label %149

149:                                              ; preds = %111, %92
  %150 = load ptr, ptr %6, align 8, !tbaa !4
  call void @timelib_do_normalize(ptr noundef %150)
  br label %151

151:                                              ; preds = %149, %23
  %152 = load ptr, ptr %6, align 8, !tbaa !4
  %153 = getelementptr inbounds nuw %struct._timelib_time, ptr %152, i32 0, i32 21
  %154 = load i32, ptr %153, align 8, !tbaa !9
  %155 = icmp eq i32 %154, 3
  br i1 %155, label %156, label %161

156:                                              ; preds = %151
  %157 = load ptr, ptr %6, align 8, !tbaa !4
  %158 = load ptr, ptr %6, align 8, !tbaa !4
  %159 = getelementptr inbounds nuw %struct._timelib_time, ptr %158, i32 0, i32 9
  %160 = load ptr, ptr %159, align 8, !tbaa !17
  call void @timelib_set_timezone(ptr noundef %157, ptr noundef %160)
  br label %161

161:                                              ; preds = %156, %151
  %162 = load ptr, ptr %6, align 8, !tbaa !4
  %163 = getelementptr inbounds nuw %struct._timelib_time, ptr %162, i32 0, i32 16
  store i32 0, ptr %163, align 4, !tbaa !64
  %164 = load ptr, ptr %6, align 8, !tbaa !4
  call void @llvm.lifetime.end.p0(i64 8, ptr %6) #7
  call void @llvm.lifetime.end.p0(i64 4, ptr %5) #7
  ret ptr %164
}